ccollections
deque
p0
((lp1
(lp2
I1
aI2
aI34
aI5
aI6
aa(lp3
I1
aI2
aI34
aI5
aI6
aa(lp4
I1
aI2
aI34
aI8
aI7
aatp5
Rp6
.ccollections
deque
p0
((lp1
(lp2
I1
aI2
aI34
aI5
aI6
aa(lp3
I1
aI2
aI34
aI5
aI6
aa(lp4
I1
aI2
aI34
aI8
aI7
aatp5
Rp6
.